; Function Attrs: nounwind uwtable
define dso_local i32 @string_compare_function_ex(ptr noundef readonly captures(none) %0, ptr noundef readonly captures(none) %1, i1 noundef zeroext %2) local_unnamed_addr #1 {
  %4 = getelementptr inbounds nuw i8, ptr %0, i64 8
  %5 = load i8, ptr %4, align 8, !tbaa !4
  %6 = icmp eq i8 %5, 6
  br i1 %6, label %7, label %9, !prof !38

7:                                                ; preds = %3
  %8 = load ptr, ptr %0, align 8, !tbaa !4
  br label %zval_get_tmp_string.exit

9:                                                ; preds = %3
  %10 = tail call ptr @zval_get_string_func(ptr noundef nonnull %0)
  br label %zval_get_tmp_string.exit

zval_get_tmp_string.exit:                         ; preds = %7, %9
  %.023 = phi ptr [ null, %7 ], [ %10, %9 ]
  %.0.i = phi ptr [ %8, %7 ], [ %10, %9 ]
  %11 = getelementptr inbounds nuw i8, ptr %1, i64 8
  %12 = load i8, ptr %11, align 8, !tbaa !4
  %13 = icmp eq i8 %12, 6
  br i1 %13, label %14, label %16, !prof !38

14:                                               ; preds = %zval_get_tmp_string.exit
  %15 = load ptr, ptr %1, align 8, !tbaa !4
  br label %zval_get_tmp_string.exit12

16:                                               ; preds = %zval_get_tmp_string.exit
  %17 = tail call ptr @zval_get_string_func(ptr noundef nonnull %1)
  br label %zval_get_tmp_string.exit12

zval_get_tmp_string.exit12:                       ; preds = %14, %16
  %.022 = phi ptr [ null, %14 ], [ %17, %16 ]
  %.0.i11 = phi ptr [ %15, %14 ], [ %17, %16 ]
  %18 = getelementptr inbounds nuw i8, ptr %.0.i, i64 16
  %19 = load i64, ptr %18, align 8, !tbaa !10
  %20 = getelementptr inbounds nuw i8, ptr %.0.i11, i64 16
  %21 = load i64, ptr %20, align 8, !tbaa !10
  %22 = icmp eq ptr %.0.i, %.0.i11
  br i1 %2, label %23, label %47

23:                                               ; preds = %zval_get_tmp_string.exit12
  br i1 %22, label %zend_binary_strcasecmp.exit, label %24

24:                                               ; preds = %23
  %25 = getelementptr inbounds nuw i8, ptr %.0.i11, i64 24
  %26 = getelementptr inbounds nuw i8, ptr %.0.i, i64 24
  %27 = tail call i64 @llvm.umin.i64(i64 %19, i64 %21)
  br label %28

28:                                               ; preds = %29, %24
  %.019.i = phi ptr [ %25, %24 ], [ %36, %29 ]
  %.018.i = phi i64 [ %27, %24 ], [ %30, %29 ]
  %.017.i = phi ptr [ %26, %24 ], [ %31, %29 ]
  %.not.i17 = icmp eq i64 %.018.i, 0
  br i1 %.not.i17, label %45, label %29

29:                                               ; preds = %28
  %30 = add i64 %.018.i, -1
  %31 = getelementptr inbounds nuw i8, ptr %.017.i, i64 1
  %32 = load i8, ptr %.017.i, align 1, !tbaa !4
  %33 = zext i8 %32 to i64
  %34 = getelementptr inbounds nuw [256 x i8], ptr @zend_tolower_map, i64 0, i64 %33
  %35 = load i8, ptr %34, align 1, !tbaa !4
  %36 = getelementptr inbounds nuw i8, ptr %.019.i, i64 1
  %37 = load i8, ptr %.019.i, align 1, !tbaa !4
  %38 = zext i8 %37 to i64
  %39 = getelementptr inbounds nuw [256 x i8], ptr @zend_tolower_map, i64 0, i64 %38
  %40 = load i8, ptr %39, align 1, !tbaa !4
  %.not24.i = icmp eq i8 %35, %40
  br i1 %.not24.i, label %28, label %41

41:                                               ; preds = %29
  %42 = zext i8 %40 to i32
  %43 = zext i8 %35 to i32
  %44 = sub nsw i32 %43, %42
  br label %zend_binary_strcasecmp.exit

45:                                               ; preds = %28
  %46 = tail call i32 @llvm.ucmp.i32.i64(i64 %19, i64 %21)
  br label %zend_binary_strcasecmp.exit

47:                                               ; preds = %zval_get_tmp_string.exit12
  br i1 %22, label %zend_binary_strcasecmp.exit, label %48

48:                                               ; preds = %47
  %49 = getelementptr inbounds nuw i8, ptr %.0.i11, i64 24
  %50 = getelementptr inbounds nuw i8, ptr %.0.i, i64 24
  %51 = tail call i64 @llvm.umin.i64(i64 %19, i64 %21)
  %52 = tail call i32 @memcmp(ptr noundef nonnull readonly %50, ptr noundef nonnull readonly %49, i64 noundef %51) #29
  %.not.i19 = icmp eq i32 %52, 0
  br i1 %.not.i19, label %53, label %zend_binary_strcasecmp.exit

53:                                               ; preds = %48
  %54 = tail call i32 @llvm.ucmp.i32.i64(i64 %19, i64 %21)
  br label %zend_binary_strcasecmp.exit

zend_binary_strcasecmp.exit:                      ; preds = %53, %48, %47, %45, %41, %23
  %.0 = phi i32 [ %44, %41 ], [ %46, %45 ], [ 0, %23 ], [ %54, %53 ], [ 0, %47 ], [ %52, %48 ]
  %.not.i = icmp eq ptr %.023, null
  br i1 %.not.i, label %zend_tmp_string_release.exit, label %55, !prof !38

55:                                               ; preds = %zend_binary_strcasecmp.exit
  %56 = getelementptr inbounds nuw i8, ptr %.023, i64 4
  %57 = load i32, ptr %56, align 4, !tbaa !4
  %58 = and i32 %57, 64
  %.not.i.i = icmp eq i32 %58, 0
  br i1 %.not.i.i, label %59, label %zend_tmp_string_release.exit

59:                                               ; preds = %55
  %60 = load i32, ptr %.023, align 4, !tbaa !7
  %61 = icmp ne i32 %60, 0
  tail call void @llvm.assume(i1 %61)
  %62 = add i32 %60, -1
  store i32 %62, ptr %.023, align 4, !tbaa !7
  %63 = icmp eq i32 %62, 0
  br i1 %63, label %64, label %zend_tmp_string_release.exit

64:                                               ; preds = %59
  tail call void @_efree(ptr noundef nonnull %.023) #28
  br label %zend_tmp_string_release.exit

zend_tmp_string_release.exit:                     ; preds = %55, %59, %64, %zend_binary_strcasecmp.exit
  %.not.i13 = icmp eq ptr %.022, null
  br i1 %.not.i13, label %zend_tmp_string_release.exit16, label %65, !prof !38

65:                                               ; preds = %zend_tmp_string_release.exit
  %66 = getelementptr inbounds nuw i8, ptr %.022, i64 4
  %67 = load i32, ptr %66, align 4, !tbaa !4
  %68 = and i32 %67, 64
  %.not.i.i14 = icmp eq i32 %68, 0
  br i1 %.not.i.i14, label %69, label %zend_tmp_string_release.exit16

69:                                               ; preds = %65
  %70 = load i32, ptr %.022, align 4, !tbaa !7
  %71 = icmp ne i32 %70, 0
  tail call void @llvm.assume(i1 %71)
  %72 = add i32 %70, -1
  store i32 %72, ptr %.022, align 4, !tbaa !7
  %73 = icmp eq i32 %72, 0
  br i1 %73, label %74, label %zend_tmp_string_release.exit16

74:                                               ; preds = %69
  tail call void @_efree(ptr noundef nonnull %.022) #28
  br label %zend_tmp_string_release.exit16

zend_tmp_string_release.exit16:                   ; preds = %65, %69, %74, %zend_tmp_string_release.exit
  ret i32 %.0
}